; Function Attrs: mustprogress nofree norecurse nosync nounwind willreturn memory(argmem: readwrite) uwtable
define noundef range(i64 -2147483648, 2147483648) i64 @_Z14fast_rv32i_sraP11processor_t6insn_tm(ptr noundef captures(none) %0, i64 %1, i64 noundef %2) local_unnamed_addr #3 {
  %4 = lshr i64 %1, 7
  %5 = and i64 %4, 31
  %.not.i = icmp eq i64 %5, 0
  br i1 %.not.i, label %_ZN9regfile_tImLm32ELb1EE5writeEmm.exit, label %6

6:                                                ; preds = %3
  %7 = getelementptr inbounds nuw i8, ptr %0, i64 256
  %8 = lshr i64 %1, 15
  %9 = and i64 %8, 31
  %10 = getelementptr inbounds nuw [32 x i64], ptr %7, i64 0, i64 %9
  %11 = load i64, ptr %10, align 8, !tbaa !3
  %12 = shl i64 %11, 32
  %13 = ashr exact i64 %12, 32
  %14 = lshr i64 %1, 20
  %15 = and i64 %14, 31
  %16 = getelementptr inbounds nuw [32 x i64], ptr %7, i64 0, i64 %15
  %17 = load i64, ptr %16, align 8, !tbaa !3
  %18 = and i64 %17, 31
  %19 = ashr i64 %13, %18
  %20 = getelementptr inbounds nuw [32 x i64], ptr %7, i64 0, i64 %5
  store i64 %19, ptr %20, align 8, !tbaa !3
  br label %_ZN9regfile_tImLm32ELb1EE5writeEmm.exit

_ZN9regfile_tImLm32ELb1EE5writeEmm.exit:          ; preds = %3, %6
  %21 = shl i64 %2, 32
  %22 = add i64 %21, 17179869184
  %23 = ashr exact i64 %22, 32
  ret i64 %23
}